target datalayout = "e-m:e-p270:32:32-p271:32:32-p272:64:64-i64:64-i128:128-f80:128-n8:16:32:64-S128"
target triple = "x86_64-unknown-linux-gnu"

%"struct.testing::internal::MatcherBase<const std::tuple<absl::Span<signed char>, absl::Span<signed char>, absl::Span<absl::container_internal::(anonymous namespace)::Int128>> &>::VTable" = type { ptr, ptr, ptr, ptr }
%"class.testing::MatcherDescriberInterface" = type { ptr }
%"struct.testing::internal::SharedPayloadBase" = type { %"struct.std::atomic" }
%"struct.std::atomic" = type { %"struct.std::__atomic_base" }
%"struct.std::__atomic_base" = type { i32 }
%"class.testing::internal::MatcherBase.517" = type { %"class.testing::MatcherDescriberInterface", ptr, %"union.testing::internal::MatcherBase<const std::tuple<absl::Span<signed char>, absl::Span<signed char>, absl::Span<absl::container_internal::(anonymous namespace)::Int128>> &>::Buffer" }
%"union.testing::internal::MatcherBase<const std::tuple<absl::Span<signed char>, absl::Span<signed char>, absl::Span<absl::container_internal::(anonymous namespace)::Int128>> &>::Buffer" = type { ptr }

; Function Attrs: mustprogress nounwind uwtable
define linkonce_odr dso_local noundef zeroext i1 @_ZN7testing8internal17SharedPayloadBase5UnrefEv(ptr noundef nonnull align 4 dereferenceable(4) %this) #7 comdat align 2 {
entry:
  %this.addr.i = alloca ptr, align 8
  %__i.addr.i = alloca i32, align 4
  %__m.addr.i = alloca i32, align 4
  %.atomictmp.i = alloca i32, align 4
  %atomic-temp.i = alloca i32, align 4
  %this.addr = alloca ptr, align 8
  store ptr %this, ptr %this.addr, align 8
  %this1 = load ptr, ptr %this.addr, align 8
  %ref = getelementptr inbounds %"struct.testing::internal::SharedPayloadBase", ptr %this1, i32 0, i32 0
  store ptr %ref, ptr %this.addr.i, align 8
  store i32 1, ptr %__i.addr.i, align 4
  store i32 4, ptr %__m.addr.i, align 4
  %this1.i = load ptr, ptr %this.addr.i, align 8
  %0 = load i32, ptr %__m.addr.i, align 4
  %1 = load i32, ptr %__i.addr.i, align 4
  store i32 %1, ptr %.atomictmp.i, align 4
  switch i32 %0, label %monotonic.i [
    i32 1, label %acquire.i
    i32 2, label %acquire.i
    i32 3, label %release.i
    i32 4, label %acqrel.i
    i32 5, label %seqcst.i
  ]

monotonic.i:                                      ; preds = %entry
  %2 = load i32, ptr %.atomictmp.i, align 4
  %3 = atomicrmw sub ptr %this1.i, i32 %2 monotonic, align 4
  store i32 %3, ptr %atomic-temp.i, align 4
  br label %_ZNSt13__atomic_baseIiE9fetch_subEiSt12memory_order.exit

acquire.i:                                        ; preds = %entry, %entry
  %4 = load i32, ptr %.atomictmp.i, align 4
  %5 = atomicrmw sub ptr %this1.i, i32 %4 acquire, align 4
  store i32 %5, ptr %atomic-temp.i, align 4
  br label %_ZNSt13__atomic_baseIiE9fetch_subEiSt12memory_order.exit

release.i:                                        ; preds = %entry
  %6 = load i32, ptr %.atomictmp.i, align 4
  %7 = atomicrmw sub ptr %this1.i, i32 %6 release, align 4
  store i32 %7, ptr %atomic-temp.i, align 4
  br label %_ZNSt13__atomic_baseIiE9fetch_subEiSt12memory_order.exit

acqrel.i:                                         ; preds = %entry
  %8 = load i32, ptr %.atomictmp.i, align 4
  %9 = atomicrmw sub ptr %this1.i, i32 %8 acq_rel, align 4
  store i32 %9, ptr %atomic-temp.i, align 4
  br label %_ZNSt13__atomic_baseIiE9fetch_subEiSt12memory_order.exit

seqcst.i:                                         ; preds = %entry
  %10 = load i32, ptr %.atomictmp.i, align 4
  %11 = atomicrmw sub ptr %this1.i, i32 %10 seq_cst, align 4
  store i32 %11, ptr %atomic-temp.i, align 4
  br label %_ZNSt13__atomic_baseIiE9fetch_subEiSt12memory_order.exit

_ZNSt13__atomic_baseIiE9fetch_subEiSt12memory_order.exit: ; preds = %seqcst.i, %acqrel.i, %release.i, %acquire.i, %monotonic.i
  %12 = load i32, ptr %atomic-temp.i, align 4
  %cmp = icmp eq i32 %12, 1
  ret i1 %cmp
}

; Function Attrs: mustprogress nounwind uwtable
define internal noundef zeroext i1 @_ZNK7testing8internal11MatcherBaseIRKSt5tupleIJN4absl4SpanIaEES5_NS4_INS3_18container_internal12_GLOBAL__N_16Int128EEEEEE8IsSharedEv(ptr noundef nonnull align 8 dereferenceable(24) %this) #7 align 2 {
entry:
  %this.addr = alloca ptr, align 8
  store ptr %this, ptr %this.addr, align 8
  %this1 = load ptr, ptr %this.addr, align 8
  %vtable_ = getelementptr inbounds %"class.testing::internal::MatcherBase.517", ptr %this1, i32 0, i32 1
  %0 = load ptr, ptr %vtable_, align 8
  %cmp = icmp ne ptr %0, null
  br i1 %cmp, label %land.rhs, label %land.end

land.rhs:                                         ; preds = %entry
  %vtable_2 = getelementptr inbounds %"class.testing::internal::MatcherBase.517", ptr %this1, i32 0, i32 1
  %1 = load ptr, ptr %vtable_2, align 8
  %shared_destroy = getelementptr inbounds %"struct.testing::internal::MatcherBase<const std::tuple<absl::Span<signed char>, absl::Span<signed char>, absl::Span<absl::container_internal::(anonymous namespace)::Int128>> &>::VTable", ptr %1, i32 0, i32 3
  %2 = load ptr, ptr %shared_destroy, align 8
  %cmp3 = icmp ne ptr %2, null
  br label %land.end

land.end:                                         ; preds = %land.rhs, %entry
  %3 = phi i1 [ false, %entry ], [ %cmp3, %land.rhs ]
  ret i1 %3
}

; Function Attrs: mustprogress nounwind uwtable
define linkonce_odr dso_local void @_ZN7testing25MatcherDescriberInterfaceD2Ev(ptr noundef nonnull align 8 dereferenceable(8) %this) unnamed_addr #7 comdat align 2 {
entry:
  %this.addr = alloca ptr, align 8
  store ptr %this, ptr %this.addr, align 8
  ret void
}

; Function Attrs: mustprogress uwtable
define internal void @_ZN7testing8internal11MatcherBaseIRKSt5tupleIJN4absl4SpanIaEES5_NS4_INS3_18container_internal12_GLOBAL__N_16Int128EEEEEE7DestroyEv(ptr noundef nonnull align 8 dereferenceable(24) %this) #4 align 2 {
entry:
  %this.addr = alloca ptr, align 8
  store ptr %this, ptr %this.addr, align 8
  %this1 = load ptr, ptr %this.addr, align 8
  %call = call noundef zeroext i1 @_ZNK7testing8internal11MatcherBaseIRKSt5tupleIJN4absl4SpanIaEES5_NS4_INS3_18container_internal12_GLOBAL__N_16Int128EEEEEE8IsSharedEv(ptr noundef nonnull align 8 dereferenceable(24) %this1)
  br i1 %call, label %land.lhs.true, label %if.end

land.lhs.true:                                    ; preds = %entry
  %buffer_ = getelementptr inbounds %"class.testing::internal::MatcherBase.517", ptr %this1, i32 0, i32 2
  %0 = load ptr, ptr %buffer_, align 8
  %call2 = call noundef zeroext i1 @_ZN7testing8internal17SharedPayloadBase5UnrefEv(ptr noundef nonnull align 4 dereferenceable(4) %0)
  br i1 %call2, label %if.then, label %if.end

if.then:                                          ; preds = %land.lhs.true
  %vtable_ = getelementptr inbounds %"class.testing::internal::MatcherBase.517", ptr %this1, i32 0, i32 1
  %1 = load ptr, ptr %vtable_, align 8
  %shared_destroy = getelementptr inbounds %"struct.testing::internal::MatcherBase<const std::tuple<absl::Span<signed char>, absl::Span<signed char>, absl::Span<absl::container_internal::(anonymous namespace)::Int128>> &>::VTable", ptr %1, i32 0, i32 3
  %2 = load ptr, ptr %shared_destroy, align 8
  %buffer_3 = getelementptr inbounds %"class.testing::internal::MatcherBase.517", ptr %this1, i32 0, i32 2
  %3 = load ptr, ptr %buffer_3, align 8
  call void %2(ptr noundef %3)
  br label %if.end

if.end:                                           ; preds = %if.then, %land.lhs.true, %entry
  ret void
}

; Function Attrs: mustprogress nounwind uwtable
define internal void @_ZN7testing8internal11MatcherBaseIRKSt5tupleIJN4absl4SpanIaEES5_NS4_INS3_18container_internal12_GLOBAL__N_16Int128EEEEEED2Ev(ptr noundef nonnull align 8 dereferenceable(24) %this) unnamed_addr #7 align 2 personality ptr @__gxx_personality_v0 {
entry:
  %this.addr = alloca ptr, align 8
  store ptr %this, ptr %this.addr, align 8
  %this1 = load ptr, ptr %this.addr, align 8
  store ptr getelementptr inbounds ({ [6 x ptr] }, ptr @_ZTVN7testing8internal11MatcherBaseIRKSt5tupleIJN4absl4SpanIaEES5_NS4_INS3_18container_internal12_GLOBAL__N_16Int128EEEEEEE, i32 0, i32 0, i32 2), ptr %this1, align 8
  invoke void @_ZN7testing8internal11MatcherBaseIRKSt5tupleIJN4absl4SpanIaEES5_NS4_INS3_18container_internal12_GLOBAL__N_16Int128EEEEEE7DestroyEv(ptr noundef nonnull align 8 dereferenceable(24) %this1)
          to label %invoke.cont unwind label %terminate.lpad

invoke.cont:                                      ; preds = %entry
  call void @_ZN7testing25MatcherDescriberInterfaceD2Ev(ptr noundef nonnull align 8 dereferenceable(8) %this1) #3
  ret void

terminate.lpad:                                   ; preds = %entry
  %0 = landingpad { ptr, i32 }
          catch ptr null
  %1 = extractvalue { ptr, i32 } %0, 0
  call void @__clang_call_terminate(ptr %1) #18
  unreachable
}

; Function Attrs: mustprogress nounwind uwtable
define internal void @_ZN7testing8internal11MatcherBaseIRKSt5tupleIJN4absl4SpanIaEES5_NS4_INS3_18container_internal12_GLOBAL__N_16Int128EEEEEED0Ev(ptr noundef nonnull align 8 dereferenceable(24) %this) unnamed_addr #7 align 2 {
entry:
  %this.addr = alloca ptr, align 8
  store ptr %this, ptr %this.addr, align 8
  %this1 = load ptr, ptr %this.addr, align 8
  call void @_ZN7testing8internal11MatcherBaseIRKSt5tupleIJN4absl4SpanIaEES5_NS4_INS3_18container_internal12_GLOBAL__N_16Int128EEEEEED2Ev(ptr noundef nonnull align 8 dereferenceable(24) %this1) #3
  call void @_ZdlPv(ptr noundef %this1) #16
  ret void
}